target datalayout = "e-m:e-p270:32:32-p271:32:32-p272:64:64-i64:64-i128:128-f80:128-n8:16:32:64-S128"
target triple = "x86_64-pc-linux-gnu"

%struct.curl_httppost = type { ptr, ptr, i64, ptr, i64, ptr, i64, ptr, ptr, ptr, i64, ptr, ptr, i64 }

@Curl_cfree = external global ptr, align 8

; Function Attrs: nounwind uwtable
define dso_local void @curl_formfree(ptr noundef %0) #0 {
  %2 = alloca ptr, align 8
  %3 = alloca ptr, align 8
  store ptr %0, ptr %2, align 8
  %4 = load ptr, ptr %2, align 8
  %5 = icmp ne ptr %4, null
  br i1 %5, label %7, label %6

6:                                                ; preds = %1
  br label %51

7:                                                ; preds = %1
  br label %8

8:                                                ; preds = %48, %7
  %9 = load ptr, ptr %2, align 8
  %10 = getelementptr inbounds %struct.curl_httppost, ptr %9, i32 0, i32 0
  %11 = load ptr, ptr %10, align 8
  store ptr %11, ptr %3, align 8
  %12 = load ptr, ptr %2, align 8
  %13 = getelementptr inbounds %struct.curl_httppost, ptr %12, i32 0, i32 9
  %14 = load ptr, ptr %13, align 8
  call void @curl_formfree(ptr noundef %14)
  %15 = load ptr, ptr %2, align 8
  %16 = getelementptr inbounds %struct.curl_httppost, ptr %15, i32 0, i32 10
  %17 = load i64, ptr %16, align 8
  %18 = and i64 %17, 4
  %19 = icmp ne i64 %18, 0
  br i1 %19, label %25, label %20

20:                                               ; preds = %8
  %21 = load ptr, ptr @Curl_cfree, align 8
  %22 = load ptr, ptr %2, align 8
  %23 = getelementptr inbounds %struct.curl_httppost, ptr %22, i32 0, i32 1
  %24 = load ptr, ptr %23, align 8
  call void %21(ptr noundef %24)
  br label %25

25:                                               ; preds = %20, %8
  %26 = load ptr, ptr %2, align 8
  %27 = getelementptr inbounds %struct.curl_httppost, ptr %26, i32 0, i32 10
  %28 = load i64, ptr %27, align 8
  %29 = and i64 %28, 88
  %30 = icmp ne i64 %29, 0
  br i1 %30, label %36, label %31

31:                                               ; preds = %25
  %32 = load ptr, ptr @Curl_cfree, align 8
  %33 = load ptr, ptr %2, align 8
  %34 = getelementptr inbounds %struct.curl_httppost, ptr %33, i32 0, i32 3
  %35 = load ptr, ptr %34, align 8
  call void %32(ptr noundef %35)
  br label %36

36:                                               ; preds = %31, %25
  %37 = load ptr, ptr @Curl_cfree, align 8
  %38 = load ptr, ptr %2, align 8
  %39 = getelementptr inbounds %struct.curl_httppost, ptr %38, i32 0, i32 7
  %40 = load ptr, ptr %39, align 8
  call void %37(ptr noundef %40)
  %41 = load ptr, ptr @Curl_cfree, align 8
  %42 = load ptr, ptr %2, align 8
  %43 = getelementptr inbounds %struct.curl_httppost, ptr %42, i32 0, i32 11
  %44 = load ptr, ptr %43, align 8
  call void %41(ptr noundef %44)
  %45 = load ptr, ptr @Curl_cfree, align 8
  %46 = load ptr, ptr %2, align 8
  call void %45(ptr noundef %46)
  %47 = load ptr, ptr %3, align 8
  store ptr %47, ptr %2, align 8
  br label %48

48:                                               ; preds = %36
  %49 = load ptr, ptr %2, align 8
  %50 = icmp ne ptr %49, null
  br i1 %50, label %8, label %51, !llvm.loop !15

51:                                               ; preds = %48, %6
  ret void
}