; Function Attrs: nounwind uwtable
define dso_local void @curl_formfree(ptr noundef %0) local_unnamed_addr #0 {
  %.not = icmp eq ptr %0, null
  br i1 %.not, label %.loopexit, label %.preheader

.preheader:                                       ; preds = %1, %19
  %.0 = phi ptr [ %2, %19 ], [ %0, %1 ]
  %2 = load ptr, ptr %.0, align 8
  %3 = getelementptr inbounds nuw i8, ptr %.0, i64 72
  %4 = load ptr, ptr %3, align 8
  tail call void @curl_formfree(ptr noundef %4)
  %5 = getelementptr inbounds nuw i8, ptr %.0, i64 80
  %6 = load i64, ptr %5, align 8
  %7 = and i64 %6, 4
  %.not14 = icmp eq i64 %7, 0
  br i1 %.not14, label %8, label %12

8:                                                ; preds = %.preheader
  %9 = load ptr, ptr @Curl_cfree, align 8
  %10 = getelementptr inbounds nuw i8, ptr %.0, i64 8
  %11 = load ptr, ptr %10, align 8
  tail call void %9(ptr noundef %11) #6
  %.pre = load i64, ptr %5, align 8
  br label %12

12:                                               ; preds = %8, %.preheader
  %13 = phi i64 [ %.pre, %8 ], [ %6, %.preheader ]
  %14 = and i64 %13, 88
  %.not15 = icmp eq i64 %14, 0
  br i1 %.not15, label %15, label %19

15:                                               ; preds = %12
  %16 = load ptr, ptr @Curl_cfree, align 8
  %17 = getelementptr inbounds nuw i8, ptr %.0, i64 24
  %18 = load ptr, ptr %17, align 8
  tail call void %16(ptr noundef %18) #6
  br label %19

19:                                               ; preds = %15, %12
  %20 = load ptr, ptr @Curl_cfree, align 8
  %21 = getelementptr inbounds nuw i8, ptr %.0, i64 56
  %22 = load ptr, ptr %21, align 8
  tail call void %20(ptr noundef %22) #6
  %23 = load ptr, ptr @Curl_cfree, align 8
  %24 = getelementptr inbounds nuw i8, ptr %.0, i64 88
  %25 = load ptr, ptr %24, align 8
  tail call void %23(ptr noundef %25) #6
  %26 = load ptr, ptr @Curl_cfree, align 8
  tail call void %26(ptr noundef nonnull %.0) #6
  %.not16 = icmp eq ptr %2, null
  br i1 %.not16, label %.loopexit, label %.preheader, !llvm.loop !15

.loopexit:                                        ; preds = %19, %1
  ret void
}